ccollections
defaultdict
p0
(c__builtin__
list
p1
tp2
Rp3
S'count'
p4
(lp5
I0
aI1
aI2
asS'alocohol'
p6
(lp7
I14
asS'all'
p8
(lp9
I0
aI1
aI2
aI3
aI4
aI5
aI6
aI7
aI8
aI9
aI10
aI11
aI12
aI13
aI14
aI15
aI16
aI17
aI18
aI19
aI20
aI21
aI22
aI23
aI24
aI25
aI26
aI27
aI28
aI29
aI30
aI31
aI32
aI33
aI34
aI35
aI36
aI37
aI38
aI39
aI40
aI41
aI42
aI43
aI44
aI45
aI46
aI47
aI48
aI49
aI50
aI51
aI52
aI53
aI54
aI55
aI56
aI57
aI58
aI59
aI60
aI61
aI62
aI63
aI64
asS'alcohol'
p10
(lp11
I4
aI9
aI18
aI23
aI26
aI27
aI29
aI32
aI33
aI35
aI38
aI39
aI41
aI44
aI45
aI53
aI58
aI63
asS'quality'
p12
(lp13
I5
aI10
aI15
aI19
aI24
aI26
aI28
aI30
aI32
aI34
aI36
aI38
aI40
aI42
aI44
aI46
aI51
aI56
aI61
asS'country'
p14
(lp15
I0
aI3
aI4
aI5
aI6
aI7
aI29
aI30
aI31
aI32
aI33
aI34
aI47
aI49
aI55
aI56
aI57
aI58
aI59
asS'price'
p16
(lp17
I6
aI11
aI16
aI20
aI50
aI55
aI60
asS'range'
p18
(lp19
I18
aI19
aI20
aI21
aI22
asS'histogram'
p20
(lp21
I0
aI1
aI2
aI47
aI48
aI49
asS'rate'
p22
(lp23
I7
aI12
aI17
aI21
aI25
aI27
aI28
aI31
aI33
aI34
aI37
aI39
aI40
aI43
aI45
aI46
aI54
aI59
aI64
asS'entropy'
p24
(lp25
I0
aI1
aI2
aI3
aI4
aI5
aI6
aI7
aI8
aI9
aI10
aI11
aI12
aI13
aI14
aI15
aI16
aI17
aI47
aI48
aI49
asS'box'
p26
(lp27
I50
aI51
aI52
aI53
aI54
aI55
aI56
aI57
aI58
aI59
aI60
aI61
aI62
aI63
aI64
asS'correlation'
p28
(lp29
I23
aI24
aI25
aI26
aI27
aI28
aI29
aI30
aI31
aI32
aI33
aI34
aI35
aI36
aI37
aI38
aI39
aI40
aI41
aI42
aI43
aI44
aI45
aI46
asS'ph'
p30
(lp31
I3
aI8
aI13
aI22
aI23
aI24
aI25
aI29
aI30
aI31
aI35
aI36
aI37
aI41
aI42
aI43
aI52
aI57
aI62
asS'iqr'
p32
(lp33
I18
aI19
aI20
aI21
aI22
aI50
aI51
aI52
aI53
aI54
aI55
aI56
aI57
aI58
aI59
aI60
aI61
aI62
aI63
aI64
asS'type'
p34
(lp35
I2
aI13
aI14
aI15
aI16
aI17
aI41
aI42
aI43
aI44
aI45
aI46
aI48
aI49
aI60
aI61
aI62
aI63
aI64
asS'scatter'
p36
(lp37
I23
aI24
aI25
aI26
aI27
aI28
aI29
aI30
aI31
aI32
aI33
aI34
aI35
aI36
aI37
aI38
aI39
aI40
aI41
aI42
aI43
aI44
aI45
aI46
asS'decade'
p38
(lp39
I1
aI8
aI9
aI10
aI11
aI12
aI35
aI36
aI37
aI38
aI39
aI40
aI47
aI48
aI50
aI51
aI52
aI53
aI54
asS'mean'
p40
(lp41
I3
aI4
aI5
aI6
aI7
aI8
aI9
aI10
aI11
aI12
aI13
aI14
aI15
aI16
aI17
as.